
compile\sys.elf:     file format elf32-littlearm


Disassembly of section .text:

08000000 <Reset_Handler-0x130>:
 8000000:	20005000 	.word	0x20005000
 8000004:	08000131 	.word	0x08000131
 8000008:	08000155 	.word	0x08000155
 800000c:	08000155 	.word	0x08000155
 8000010:	08000155 	.word	0x08000155
 8000014:	08000155 	.word	0x08000155
 8000018:	08000155 	.word	0x08000155
	...
 800002c:	08000155 	.word	0x08000155
 8000030:	08000155 	.word	0x08000155
 8000034:	00000000 	.word	0x00000000
 8000038:	08000155 	.word	0x08000155
 800003c:	08000155 	.word	0x08000155
 8000040:	08000155 	.word	0x08000155
 8000044:	08000155 	.word	0x08000155
 8000048:	08000155 	.word	0x08000155
 800004c:	08000155 	.word	0x08000155
 8000050:	08000155 	.word	0x08000155
 8000054:	08000155 	.word	0x08000155
 8000058:	08000155 	.word	0x08000155
 800005c:	08000155 	.word	0x08000155
 8000060:	08000155 	.word	0x08000155
 8000064:	08000155 	.word	0x08000155
 8000068:	08000155 	.word	0x08000155
 800006c:	08000155 	.word	0x08000155
 8000070:	08000155 	.word	0x08000155
 8000074:	08000155 	.word	0x08000155
 8000078:	08000155 	.word	0x08000155
 800007c:	08000155 	.word	0x08000155
 8000080:	08000155 	.word	0x08000155
 8000084:	08000155 	.word	0x08000155
 8000088:	08000155 	.word	0x08000155
 800008c:	08000155 	.word	0x08000155
 8000090:	08000155 	.word	0x08000155
 8000094:	08000155 	.word	0x08000155
 8000098:	08000155 	.word	0x08000155
 800009c:	08000155 	.word	0x08000155
 80000a0:	08000155 	.word	0x08000155
 80000a4:	08000155 	.word	0x08000155
 80000a8:	08000155 	.word	0x08000155
 80000ac:	08000155 	.word	0x08000155
 80000b0:	080001d3 	.word	0x080001d3
 80000b4:	08000155 	.word	0x08000155
 80000b8:	08000155 	.word	0x08000155
 80000bc:	08000155 	.word	0x08000155
 80000c0:	08000155 	.word	0x08000155
 80000c4:	08000155 	.word	0x08000155
 80000c8:	08000155 	.word	0x08000155
 80000cc:	08000155 	.word	0x08000155
 80000d0:	08000155 	.word	0x08000155
 80000d4:	08000155 	.word	0x08000155
 80000d8:	08000155 	.word	0x08000155
 80000dc:	08000155 	.word	0x08000155
 80000e0:	08000155 	.word	0x08000155
 80000e4:	08000155 	.word	0x08000155
 80000e8:	00000000 	.word	0x00000000
 80000ec:	08000155 	.word	0x08000155
 80000f0:	08000155 	.word	0x08000155
 80000f4:	08000155 	.word	0x08000155
 80000f8:	08000155 	.word	0x08000155
 80000fc:	08000155 	.word	0x08000155
 8000100:	08000155 	.word	0x08000155
 8000104:	08000155 	.word	0x08000155
 8000108:	08000155 	.word	0x08000155
 800010c:	08000155 	.word	0x08000155
 8000110:	08000155 	.word	0x08000155
 8000114:	08000155 	.word	0x08000155
 8000118:	08000155 	.word	0x08000155
 800011c:	08000155 	.word	0x08000155
 8000120:	08000155 	.word	0x08000155
 8000124:	08000155 	.word	0x08000155
 8000128:	08000155 	.word	0x08000155
 800012c:	08000155 	.word	0x08000155

08000130 <Reset_Handler>:
 8000130:	f000 f81c 	bl	800016c <SystemInit72>
 8000134:	f000 f863 	bl	80001fe <tim2Init>
 8000138:	4808      	ldr	r0, [pc, #32]	; (800015c <Default_Handler+0x8>)

0800013a <mainLoop>:
 800013a:	4909      	ldr	r1, [pc, #36]	; (8000160 <Default_Handler+0xc>)
 800013c:	f242 7210 	movw	r2, #10000	; 0x2710
 8000140:	800a      	strh	r2, [r1, #0]

08000142 <isSteelCount>:
 8000142:	6802      	ldr	r2, [r0, #0]
 8000144:	2a01      	cmp	r2, #1
 8000146:	d1fc      	bne.n	8000142 <isSteelCount>
 8000148:	f04f 0200 	mov.w	r2, #0
 800014c:	800a      	strh	r2, [r1, #0]
 800014e:	6002      	str	r2, [r0, #0]
 8000150:	4b04      	ldr	r3, [pc, #16]	; (8000164 <Default_Handler+0x10>)
 8000152:	e7f2      	b.n	800013a <mainLoop>

08000154 <Default_Handler>:
 8000154:	4e04      	ldr	r6, [pc, #16]	; (8000168 <Default_Handler+0x14>)
 8000156:	6836      	ldr	r6, [r6, #0]
 8000158:	4770      	bx	lr
 800015a:	0000      	.short	0x0000
 800015c:	42000200 	.word	0x42000200
 8000160:	4000002c 	.word	0x4000002c
 8000164:	deadbeef 	.word	0xdeadbeef
 8000168:	e000ed04 	.word	0xe000ed04

0800016c <SystemInit72>:
 800016c:	b57f      	push	{r0, r1, r2, r3, r4, r5, r6, lr}
 800016e:	f04f 0001 	mov.w	r0, #1
 8000172:	493c      	ldr	r1, [pc, #240]	; (8000264 <del01+0xc>)
 8000174:	4a3c      	ldr	r2, [pc, #240]	; (8000268 <del01+0x10>)
 8000176:	4b3d      	ldr	r3, [pc, #244]	; (800026c <del01+0x14>)
 8000178:	4c3d      	ldr	r4, [pc, #244]	; (8000270 <del01+0x18>)
 800017a:	6410      	str	r0, [r2, #64]	; 0x40
 800017c:	f102 0544 	add.w	r5, r2, #68	; 0x44
 8000180:	f000 f814 	bl	80001ac <wait>
 8000184:	680d      	ldr	r5, [r1, #0]
 8000186:	4e3b      	ldr	r6, [pc, #236]	; (8000274 <del01+0x1c>)
 8000188:	ea45 0506 	orr.w	r5, r5, r6
 800018c:	600d      	str	r5, [r1, #0]
 800018e:	6120      	str	r0, [r4, #16]
 8000190:	6060      	str	r0, [r4, #4]
 8000192:	6610      	str	r0, [r2, #96]	; 0x60
 8000194:	f102 0564 	add.w	r5, r2, #100	; 0x64
 8000198:	f000 f808 	bl	80001ac <wait>
 800019c:	6058      	str	r0, [r3, #4]
 800019e:	f103 050c 	add.w	r5, r3, #12
 80001a2:	f000 f803 	bl	80001ac <wait>
 80001a6:	e8bd 407f 	ldmia.w	sp!, {r0, r1, r2, r3, r4, r5, r6, lr}
 80001aa:	4770      	bx	lr

080001ac <wait>:
 80001ac:	b51c      	push	{r2, r3, r4, lr}
 80001ae:	f04f 0301 	mov.w	r3, #1
 80001b2:	eb03 3303 	add.w	r3, r3, r3, lsl #12

080001b6 <w01>:
 80001b6:	3b01      	subs	r3, #1
 80001b8:	d006      	beq.n	80001c8 <wend>
 80001ba:	682c      	ldr	r4, [r5, #0]
 80001bc:	f014 0f01 	tst.w	r4, #1
 80001c0:	d0f9      	beq.n	80001b6 <w01>
 80001c2:	e8bd 401c 	ldmia.w	sp!, {r2, r3, r4, lr}
 80001c6:	4770      	bx	lr

080001c8 <wend>:
 80001c8:	f04f 36ff 	mov.w	r6, #4294967295
 80001cc:	e8bd 401c 	ldmia.w	sp!, {r2, r3, r4, lr}
 80001d0:	4770      	bx	lr

080001d2 <TIM2_IRQHandler>:
 80001d2:	b507      	push	{r0, r1, r2, lr}
 80001d4:	f04f 5080 	mov.w	r0, #268435456	; 0x10000000
 80001d8:	4927      	ldr	r1, [pc, #156]	; (8000278 <del01+0x20>)
 80001da:	680a      	ldr	r2, [r1, #0]
 80001dc:	4202      	tst	r2, r0
 80001de:	bf1c      	itt	ne
 80001e0:	4925      	ldrne	r1, [pc, #148]	; (8000278 <del01+0x20>)
 80001e2:	6008      	strne	r0, [r1, #0]
 80001e4:	bf00      	nop
 80001e6:	4825      	ldr	r0, [pc, #148]	; (800027c <del01+0x24>)
 80001e8:	6801      	ldr	r1, [r0, #0]
 80001ea:	f101 0101 	add.w	r1, r1, #1
 80001ee:	6001      	str	r1, [r0, #0]

080001f0 <L01>:
 80001f0:	4823      	ldr	r0, [pc, #140]	; (8000280 <del01+0x28>)
 80001f2:	ea81 0101 	eor.w	r1, r1, r1
 80001f6:	6001      	str	r1, [r0, #0]
 80001f8:	e8bd 4007 	ldmia.w	sp!, {r0, r1, r2, lr}
 80001fc:	4770      	bx	lr

080001fe <tim2Init>:
 80001fe:	b50f      	push	{r0, r1, r2, r3, lr}
 8000200:	f04f 0001 	mov.w	r0, #1
 8000204:	491f      	ldr	r1, [pc, #124]	; (8000284 <del01+0x2c>)
 8000206:	6008      	str	r0, [r1, #0]
 8000208:	f04f 4184 	mov.w	r1, #1107296256	; 0x42000000
 800020c:	4a1e      	ldr	r2, [pc, #120]	; (8000288 <del01+0x30>)
 800020e:	6048      	str	r0, [r1, #4]
 8000210:	6088      	str	r0, [r1, #8]
 8000212:	4a1e      	ldr	r2, [pc, #120]	; (800028c <del01+0x34>)
 8000214:	f04f 0300 	mov.w	r3, #0
 8000218:	6013      	str	r3, [r2, #0]
 800021a:	4a1d      	ldr	r2, [pc, #116]	; (8000290 <del01+0x38>)
 800021c:	f648 439f 	movw	r3, #35999	; 0x8c9f
 8000220:	6013      	str	r3, [r2, #0]
 8000222:	f04f 4184 	mov.w	r1, #1107296256	; 0x42000000
 8000226:	6008      	str	r0, [r1, #0]
 8000228:	f04f 0000 	mov.w	r0, #0
 800022c:	6048      	str	r0, [r1, #4]
 800022e:	e8bd 400f 	ldmia.w	sp!, {r0, r1, r2, r3, lr}
 8000232:	4770      	bx	lr

08000234 <Delay>:
 8000234:	b50f      	push	{r0, r1, r2, r3, lr}
 8000236:	4817      	ldr	r0, [pc, #92]	; (8000294 <del01+0x3c>)
 8000238:	4a10      	ldr	r2, [pc, #64]	; (800027c <del01+0x24>)
 800023a:	ea81 0101 	eor.w	r1, r1, r1
 800023e:	6011      	str	r1, [r2, #0]
 8000240:	f04f 0101 	mov.w	r1, #1
 8000244:	6803      	ldr	r3, [r0, #0]
 8000246:	2b00      	cmp	r3, #0
 8000248:	d106      	bne.n	8000258 <del01>
 800024a:	b420      	push	{r5}
 800024c:	f7ff ffd7 	bl	80001fe <tim2Init>
 8000250:	420d      	tst	r5, r1
 8000252:	bf18      	it	ne
 8000254:	6001      	strne	r1, [r0, #0]
 8000256:	bc20      	pop	{r5}

08000258 <del01>:
 8000258:	6811      	ldr	r1, [r2, #0]
 800025a:	42a9      	cmp	r1, r5
 800025c:	d1fc      	bne.n	8000258 <del01>
 800025e:	e8bd 400f 	ldmia.w	sp!, {r0, r1, r2, r3, lr}
 8000262:	4770      	bx	lr
 8000264:	40021004 	.word	0x40021004
 8000268:	42420000 	.word	0x42420000
 800026c:	42420080 	.word	0x42420080
 8000270:	42440000 	.word	0x42440000
 8000274:	001d8400 	.word	0x001d8400
 8000278:	e000e280 	.word	0xe000e280
 800027c:	20000004 	.word	0x20000004
 8000280:	42000200 	.word	0x42000200
 8000284:	42420380 	.word	0x42420380
 8000288:	42000180 	.word	0x42000180
 800028c:	4000002c 	.word	0x4000002c
 8000290:	40000028 	.word	0x40000028
 8000294:	20000000 	.word	0x20000000
